; Function Attrs: mustprogress uwtable
define hidden noundef zeroext i1 @_ZN4cvc58internal6theory11quantifiers9Skolemize15isInductionTermERKNS0_7OptionsENS0_12NodeTemplateILb1EEE(ptr noundef nonnull readonly align 8 captures(none) dereferenceable(408) %0, ptr noundef nonnull %1) local_unnamed_addr #3 align 2 personality ptr @__gxx_personality_v0 {
  %3 = alloca %"class.cvc5::internal::TypeNode", align 8
  call void @llvm.lifetime.start.p0(i64 8, ptr nonnull %3) #26
  call void @_ZNK4cvc58internal12NodeTemplateILb1EE7getTypeEb(ptr dead_on_unwind nonnull writable sret(%"class.cvc5::internal::TypeNode") align 8 %3, ptr noundef nonnull align 8 dereferenceable(8) %1, i1 noundef zeroext false)
  %4 = getelementptr inbounds nuw i8, ptr %0, i64 344
  %5 = load ptr, ptr %4, align 8, !tbaa !71
  %6 = getelementptr inbounds nuw i8, ptr %5, i64 123
  %7 = load i8, ptr %6, align 1, !tbaa !255, !range !295, !noundef !296
  %8 = trunc nuw i8 %7 to i1
  br i1 %8, label %9, label %22

9:                                                ; preds = %2
  %10 = invoke noundef zeroext i1 @_ZNK4cvc58internal8TypeNode10isDatatypeEv(ptr noundef nonnull align 8 dereferenceable(8) %3)
          to label %11 unwind label %18

11:                                               ; preds = %9
  br i1 %10, label %12, label %._crit_edge

._crit_edge:                                      ; preds = %11
  %.pre = load ptr, ptr %4, align 8, !tbaa !71
  br label %22

12:                                               ; preds = %11
  %13 = invoke noundef nonnull align 8 dereferenceable(448) ptr @_ZNK4cvc58internal8TypeNode8getDTypeEv(ptr noundef nonnull align 8 dereferenceable(8) %3)
          to label %14 unwind label %20

14:                                               ; preds = %12
  %15 = invoke noundef zeroext i1 @_ZNK4cvc58internal5DType12isCodatatypeEv(ptr noundef nonnull align 8 dereferenceable(448) %13)
          to label %16 unwind label %20

16:                                               ; preds = %14
  %17 = xor i1 %15, true
  br label %31

18:                                               ; preds = %27, %9
  %19 = landingpad { ptr, i32 }
          cleanup
  br label %45

20:                                               ; preds = %14, %12
  %21 = landingpad { ptr, i32 }
          cleanup
  br label %45

22:                                               ; preds = %._crit_edge, %2
  %23 = phi ptr [ %.pre, %._crit_edge ], [ %5, %2 ]
  %24 = getelementptr inbounds nuw i8, ptr %23, i64 257
  %25 = load i8, ptr %24, align 1, !tbaa !297, !range !295, !noundef !296
  %26 = trunc nuw i8 %25 to i1
  br i1 %26, label %27, label %30

27:                                               ; preds = %22
  %28 = invoke noundef zeroext i1 @_ZNK4cvc58internal8TypeNode9isIntegerEv(ptr noundef nonnull align 8 dereferenceable(8) %3)
          to label %29 unwind label %18

29:                                               ; preds = %27
  br i1 %28, label %31, label %30

30:                                               ; preds = %29, %22
  br label %31

31:                                               ; preds = %29, %30, %16
  %.0 = phi i1 [ %17, %16 ], [ false, %30 ], [ true, %29 ]
  %32 = load ptr, ptr %3, align 8, !tbaa !415
  %33 = load i64, ptr %32, align 8
  %34 = and i64 %33, 1152920405095219200
  %.not.i.i = icmp eq i64 %34, 1152920405095219200
  br i1 %.not.i.i, label %_ZN4cvc58internal8TypeNodeD2Ev.exit, label %35, !prof !303

35:                                               ; preds = %31
  %36 = add i64 %33, 1152920405095219200
  %37 = and i64 %36, 1152920405095219200
  %38 = and i64 %33, -1152920405095219201
  %39 = or disjoint i64 %37, %38
  store i64 %39, ptr %32, align 8
  %40 = icmp eq i64 %37, 0
  br i1 %40, label %41, label %_ZN4cvc58internal8TypeNodeD2Ev.exit, !prof !303

41:                                               ; preds = %35
  invoke void @_ZN4cvc58internal4expr9NodeValue15markForDeletionEv(ptr noundef nonnull align 8 dereferenceable(24) %32)
          to label %_ZN4cvc58internal8TypeNodeD2Ev.exit unwind label %42

42:                                               ; preds = %41
  %43 = landingpad { ptr, i32 }
          catch ptr null
  %44 = extractvalue { ptr, i32 } %43, 0
  call void @__clang_call_terminate(ptr %44) #27
  unreachable

_ZN4cvc58internal8TypeNodeD2Ev.exit:              ; preds = %31, %35, %41
  call void @llvm.lifetime.end.p0(i64 8, ptr nonnull %3) #26
  ret i1 %.0

45:                                               ; preds = %20, %18
  %.pn = phi { ptr, i32 } [ %21, %20 ], [ %19, %18 ]
  call void @_ZN4cvc58internal8TypeNodeD2Ev(ptr noundef nonnull align 8 dereferenceable(8) %3) #26
  call void @llvm.lifetime.end.p0(i64 8, ptr nonnull %3) #26
  resume { ptr, i32 } %.pn
}